(dp0
S'rhenium.cs.pitt.edu'
p1
(S'136.142.227.12'
p2
S'10008'
p3
tp4
sS'nickel.cs.pitt.edu'
p5
(S'136.142.227.15'
p6
S'10009'
p7
tp8
sS'nitrogen.cs.pitt.edu'
p9
(S'136.142.227.9'
p10
S'10007'
p11
tp12
sS'oxygen.cs.pitt.edu'
p13
(S'136.142.227.10'
p14
S'10006'
p15
tp16
sS'arsenic.cs.pitt.edu'
p17
(S'136.142.227.7'
p18
S'10002'
p19
tp20
sS'selenium.cs.pitt.edu'
p21
(S'136.142.227.6'
p22
S'10004'
p23
tp24
sS'neptunium.cs.pitt.edu'
p25
(S'136.142.227.13'
p26
S'10011'
p27
tp28
sS'neodymium.cs.pitt.edu'
p29
(S'136.142.227.14'
p30
S'10010'
p31
tp32
sS'germanium.cs.pitt.edu'
p33
(S'136.142.227.18'
p34
S'10012'
p35
tp36
sS'aluminum.cs.pitt.edu'
p37
(S'136.142.227.5'
p38
S'10003'
p39
tp40
sS'hydrogen.cs.pitt.edu'
p41
(S'136.142.227.11'
p42
S'10005'
p43
tp44
sS'antimony.cs.pitt.edu'
p45
(S'136.142.227.8'
p46
S'10001'
p47
tp48
s.